target datalayout = "e-m:e-p270:32:32-p271:32:32-p272:64:64-i64:64-i128:128-f80:128-n8:16:32:64-S128"
target triple = "x86_64-pc-linux-gnu"

; Function Attrs: mustprogress uwtable
define dso_local void @_ZN35btSequentialImpulseConstraintSolver15convertContactsEPP20btPersistentManifoldiRK19btContactSolverInfo(ptr noundef nonnull align 8 dereferenceable(408) %0, ptr noundef %1, i32 noundef %2, ptr noundef nonnull align 4 dereferenceable(128) %3) unnamed_addr #2 align 2 {
  %5 = alloca ptr, align 8
  %6 = alloca ptr, align 8
  %7 = alloca i32, align 4
  %8 = alloca ptr, align 8
  %9 = alloca i32, align 4
  %10 = alloca ptr, align 8
  store ptr %0, ptr %5, align 8, !tbaa !12
  store ptr %1, ptr %6, align 8, !tbaa !152
  store i32 %2, ptr %7, align 4, !tbaa !9
  store ptr %3, ptr %8, align 8, !tbaa !106
  %11 = load ptr, ptr %5, align 8
  call void @llvm.lifetime.start.p0(i64 4, ptr %9) #15
  call void @llvm.lifetime.start.p0(i64 8, ptr %10) #15
  store ptr null, ptr %10, align 8, !tbaa !137
  store i32 0, ptr %9, align 4, !tbaa !9
  br label %12

12:                                               ; preds = %24, %4
  %13 = load i32, ptr %9, align 4, !tbaa !9
  %14 = load i32, ptr %7, align 4, !tbaa !9
  %15 = icmp slt i32 %13, %14
  br i1 %15, label %16, label %27

16:                                               ; preds = %12
  %17 = load ptr, ptr %6, align 8, !tbaa !152
  %18 = load i32, ptr %9, align 4, !tbaa !9
  %19 = sext i32 %18 to i64
  %20 = getelementptr inbounds ptr, ptr %17, i64 %19
  %21 = load ptr, ptr %20, align 8, !tbaa !137
  store ptr %21, ptr %10, align 8, !tbaa !137
  %22 = load ptr, ptr %10, align 8, !tbaa !137
  %23 = load ptr, ptr %8, align 8, !tbaa !106
  call void @_ZN35btSequentialImpulseConstraintSolver14convertContactEP20btPersistentManifoldRK19btContactSolverInfo(ptr noundef nonnull align 8 dereferenceable(408) %11, ptr noundef %22, ptr noundef nonnull align 4 dereferenceable(128) %23)
  br label %24

24:                                               ; preds = %16
  %25 = load i32, ptr %9, align 4, !tbaa !9
  %26 = add nsw i32 %25, 1
  store i32 %26, ptr %9, align 4, !tbaa !9
  br label %12, !llvm.loop !154

27:                                               ; preds = %12
  call void @llvm.lifetime.end.p0(i64 8, ptr %10) #15
  call void @llvm.lifetime.end.p0(i64 4, ptr %9) #15
  ret void
}