; Function Attrs: mustprogress uwtable
define dso_local void @_ZN35btSequentialImpulseConstraintSolver15convertContactsEPP20btPersistentManifoldiRK19btContactSolverInfo(ptr noundef nonnull align 8 captures(none) dereferenceable(408) %0, ptr noundef readonly captures(none) %1, i32 noundef %2, ptr noundef nonnull readonly align 4 captures(none) dereferenceable(128) %3) unnamed_addr #0 align 2 {
  %5 = icmp sgt i32 %2, 0
  br i1 %5, label %.lr.ph.preheader, label %._crit_edge

.lr.ph.preheader:                                 ; preds = %4
  %wide.trip.count = zext nneg i32 %2 to i64
  br label %.lr.ph

.lr.ph:                                           ; preds = %.lr.ph.preheader, %.lr.ph
  %indvars.iv = phi i64 [ 0, %.lr.ph.preheader ], [ %indvars.iv.next, %.lr.ph ]
  %6 = getelementptr inbounds nuw ptr, ptr %1, i64 %indvars.iv
  %7 = load ptr, ptr %6, align 8, !tbaa !130
  tail call void @_ZN35btSequentialImpulseConstraintSolver14convertContactEP20btPersistentManifoldRK19btContactSolverInfo(ptr noundef nonnull align 8 dereferenceable(408) %0, ptr noundef %7, ptr noundef nonnull align 4 dereferenceable(128) %3)
  %indvars.iv.next = add nuw nsw i64 %indvars.iv, 1
  %exitcond.not = icmp eq i64 %indvars.iv.next, %wide.trip.count
  br i1 %exitcond.not, label %._crit_edge, label %.lr.ph, !llvm.loop !132

._crit_edge:                                      ; preds = %.lr.ph, %4
  ret void
}